; Function Attrs: mustprogress nofree norecurse nosync nounwind willreturn memory(read, inaccessiblemem: none) uwtable
define hidden noundef ptr @_ZN3smt9seq_regex16get_expr_from_idEj(ptr noundef nonnull readonly align 8 captures(none) dereferenceable(228) %0, i32 noundef %1) local_unnamed_addr #10 align 2 {
  %3 = add i32 %1, -1
  %4 = getelementptr inbounds nuw i8, ptr %0, i64 64
  %5 = load ptr, ptr %4, align 8, !tbaa !57
  %6 = zext i32 %3 to i64
  %7 = getelementptr inbounds nuw ptr, ptr %5, i64 %6
  %8 = load ptr, ptr %7, align 8, !tbaa !61
  ret ptr %8
}